; Function Attrs: mustprogress nofree norecurse nosync nounwind willreturn memory(read, argmem: readwrite, inaccessiblemem: none) uwtable
define internal noundef i32 @cff_get_is_cid(ptr nocapture noundef readonly %0, ptr nocapture noundef writeonly %1) #0 {
  %3 = getelementptr inbounds i8, ptr %0, i64 1168
  %4 = load ptr, ptr %3, align 8
  store i8 0, ptr %1, align 1
  %.not = icmp eq ptr %4, null
  br i1 %.not, label %9, label %5

5:                                                ; preds = %2
  %6 = getelementptr inbounds i8, ptr %4, i64 1868
  %7 = load i32, ptr %6, align 4
  %.not7 = icmp eq i32 %7, 65535
  br i1 %.not7, label %9, label %8

8:                                                ; preds = %5
  store i8 1, ptr %1, align 1
  br label %9

9:                                                ; preds = %5, %8, %2
  ret i32 0
}